; ModuleID = 'source-C-CXX/24/1099.cpp'
source_filename = "source-C-CXX/24/1099.cpp"
target datalayout = "e-m:e-p270:32:32-p271:32:32-p272:64:64-i64:64-f80:128-n8:16:32:64-S128"
target triple = "x86_64-pc-linux-gnu"

%"class.std::ios_base::Init" = type { i8 }
%"class.std::basic_istream" = type { i32 (...)**, i64, %"class.std::basic_ios" }
%"class.std::basic_ios" = type { %"class.std::ios_base", %"class.std::basic_ostream"*, i8, i8, %"class.std::basic_streambuf"*, %"class.std::ctype"*, %"class.std::num_put"*, %"class.std::num_get"* }
%"class.std::ios_base" = type { i32 (...)**, i64, i64, i32, i32, i32, %"struct.std::ios_base::_Callback_list"*, %"struct.std::ios_base::_Words", [8 x %"struct.std::ios_base::_Words"], i32, %"struct.std::ios_base::_Words"*, %"class.std::locale" }
%"struct.std::ios_base::_Callback_list" = type { %"struct.std::ios_base::_Callback_list"*, void (i32, %"class.std::ios_base"*, i32)*, i32, i32 }
%"struct.std::ios_base::_Words" = type { i8*, i64 }
%"class.std::locale" = type { %"class.std::locale::_Impl"* }
%"class.std::locale::_Impl" = type { i32, %"class.std::locale::facet"**, i64, %"class.std::locale::facet"**, i8** }
%"class.std::locale::facet" = type <{ i32 (...)**, i32, [4 x i8] }>
%"class.std::basic_ostream" = type { i32 (...)**, %"class.std::basic_ios" }
%"class.std::basic_streambuf" = type { i32 (...)**, i8*, i8*, i8*, i8*, i8*, i8*, %"class.std::locale" }
%"class.std::ctype" = type <{ %"class.std::locale::facet.base", [4 x i8], %struct.__locale_struct*, i8, [7 x i8], i32*, i32*, i16*, i8, [256 x i8], [256 x i8], i8, [6 x i8] }>
%"class.std::locale::facet.base" = type <{ i32 (...)**, i32 }>
%struct.__locale_struct = type { [13 x %struct.__locale_data*], i16*, i32*, i32*, [13 x i8*] }
%struct.__locale_data = type opaque
%"class.std::num_put" = type { %"class.std::locale::facet.base", [4 x i8] }
%"class.std::num_get" = type { %"class.std::locale::facet.base", [4 x i8] }

@_ZStL8__ioinit = internal global %"class.std::ios_base::Init" zeroinitializer, align 1
@__dso_handle = external hidden global i8
@_ZSt3cin = external global %"class.std::basic_istream", align 8
@_ZSt4cout = external global %"class.std::basic_ostream", align 8
@llvm.global_ctors = appending global [1 x { i32, void ()*, i8* }] [{ i32, void ()*, i8* } { i32 65535, void ()* @_GLOBAL__sub_I_1099.cpp, i8* null }]

declare void @_ZNSt8ios_base4InitC1Ev(%"class.std::ios_base::Init"* nonnull align 1 dereferenceable(1)) unnamed_addr #0

; Function Attrs: nounwind
declare void @_ZNSt8ios_base4InitD1Ev(%"class.std::ios_base::Init"* nonnull align 1 dereferenceable(1)) unnamed_addr #1

; Function Attrs: nofree nounwind
declare i32 @__cxa_atexit(void (i8*)*, i8*, i8*) local_unnamed_addr #2

; Function Attrs: mustprogress norecurse sspstrong uwtable
define dso_local i32 @main() local_unnamed_addr #3 {
  %1 = alloca [35 x i32], align 16
  %2 = alloca [35 x i32], align 16
  %3 = getelementptr inbounds [35 x i32], [35 x i32]* %2, i64 0, i64 0
  %4 = alloca i32, align 4
  %5 = bitcast [35 x i32]* %1 to i8*
  call void @llvm.lifetime.start.p0i8(i64 140, i8* nonnull %5) #7
  call void @llvm.memset.p0i8.i64(i8* noundef nonnull align 16 dereferenceable(140) %5, i8 0, i64 140, i1 false)
  %6 = getelementptr inbounds [35 x i32], [35 x i32]* %1, i64 0, i64 0
  store i32 1, i32* %6, align 16
  %7 = bitcast [35 x i32]* %2 to i8*
  call void @llvm.lifetime.start.p0i8(i64 140, i8* nonnull %7) #7
  call void @llvm.memset.p0i8.i64(i8* noundef nonnull align 16 dereferenceable(140) %7, i8 0, i64 140, i1 false)
  %8 = bitcast i32* %4 to i8*
  call void @llvm.lifetime.start.p0i8(i64 4, i8* nonnull %8) #7
  store i32 0, i32* %4, align 4, !tbaa !5
  %9 = call nonnull align 8 dereferenceable(16) %"class.std::basic_istream"* @_ZNSirsERi(%"class.std::basic_istream"* nonnull align 8 dereferenceable(16) @_ZSt3cin, i32* nonnull align 4 dereferenceable(4) %4)
  %10 = load i32, i32* %4, align 4, !tbaa !5
  %11 = icmp sgt i32 %10, 0
  br i1 %11, label %12, label %14

12:                                               ; preds = %0
  %13 = load i32, i32* %3, align 16
  br label %15

14:                                               ; preds = %17, %0
  br label %35

15:                                               ; preds = %12, %17
  %16 = phi i32 [ %18, %17 ], [ 0, %12 ]
  br label %20

17:                                               ; preds = %20
  %18 = add nuw nsw i32 %16, 1
  %19 = icmp eq i32 %18, %10
  br i1 %19, label %14, label %15, !llvm.loop !9

20:                                               ; preds = %49, %15
  %21 = phi i32 [ %13, %15 ], [ %57, %49 ]
  %22 = phi i64 [ 0, %15 ], [ %58, %49 ]
  %23 = getelementptr inbounds [35 x i32], [35 x i32]* %1, i64 0, i64 %22
  %24 = load i32, i32* %23, align 8, !tbaa !5
  %25 = shl nsw i32 %24, 1
  %26 = add nsw i32 %25, %21
  %27 = icmp sgt i32 %26, 9
  %28 = add nsw i32 %26, -10
  %29 = select i1 %27, i32 %28, i32 %26
  %30 = zext i1 %27 to i32
  store i32 %29, i32* %23, align 8, !tbaa !5
  %31 = or i64 %22, 1
  %32 = getelementptr inbounds [35 x i32], [35 x i32]* %2, i64 0, i64 %31
  store i32 %30, i32* %32, align 4, !tbaa !5
  %33 = icmp eq i64 %31, 33
  br i1 %33, label %17, label %49, !llvm.loop !11

34:                                               ; preds = %45
  call void @llvm.lifetime.end.p0i8(i64 4, i8* nonnull %8) #7
  call void @llvm.lifetime.end.p0i8(i64 140, i8* nonnull %7) #7
  call void @llvm.lifetime.end.p0i8(i64 140, i8* nonnull %5) #7
  ret i32 0

35:                                               ; preds = %14, %45
  %36 = phi i64 [ %47, %45 ], [ 34, %14 ]
  %37 = phi i32 [ %46, %45 ], [ 0, %14 ]
  %38 = getelementptr inbounds [35 x i32], [35 x i32]* %1, i64 0, i64 %36
  %39 = load i32, i32* %38, align 4, !tbaa !5
  %40 = icmp ne i32 %39, 0
  %41 = icmp eq i32 %37, 1
  %42 = or i1 %41, %40
  br i1 %42, label %43, label %45

43:                                               ; preds = %35
  %44 = call nonnull align 8 dereferenceable(8) %"class.std::basic_ostream"* @_ZNSolsEi(%"class.std::basic_ostream"* nonnull align 8 dereferenceable(8) @_ZSt4cout, i32 %39)
  br label %45

45:                                               ; preds = %43, %35
  %46 = phi i32 [ 1, %43 ], [ 0, %35 ]
  %47 = add nsw i64 %36, -1
  %48 = icmp eq i64 %36, 0
  br i1 %48, label %34, label %35, !llvm.loop !12

49:                                               ; preds = %20
  %50 = getelementptr inbounds [35 x i32], [35 x i32]* %1, i64 0, i64 %31
  %51 = load i32, i32* %50, align 4, !tbaa !5
  %52 = shl nsw i32 %51, 1
  %53 = or i32 %52, %30
  %54 = icmp sgt i32 %53, 9
  %55 = add nsw i32 %53, -10
  %56 = select i1 %54, i32 %55, i32 %53
  %57 = zext i1 %54 to i32
  store i32 %56, i32* %50, align 4, !tbaa !5
  %58 = add nuw nsw i64 %22, 2
  %59 = getelementptr inbounds [35 x i32], [35 x i32]* %2, i64 0, i64 %58
  store i32 %57, i32* %59, align 8, !tbaa !5
  br label %20
}

; Function Attrs: argmemonly mustprogress nofree nosync nounwind willreturn
declare void @llvm.lifetime.start.p0i8(i64 immarg, i8* nocapture) #4

; Function Attrs: argmemonly mustprogress nofree nounwind willreturn writeonly
declare void @llvm.memset.p0i8.i64(i8* nocapture writeonly, i8, i64, i1 immarg) #5

declare nonnull align 8 dereferenceable(16) %"class.std::basic_istream"* @_ZNSirsERi(%"class.std::basic_istream"* nonnull align 8 dereferenceable(16), i32* nonnull align 4 dereferenceable(4)) local_unnamed_addr #0

; Function Attrs: argmemonly mustprogress nofree nosync nounwind willreturn
declare void @llvm.lifetime.end.p0i8(i64 immarg, i8* nocapture) #4

declare nonnull align 8 dereferenceable(8) %"class.std::basic_ostream"* @_ZNSolsEi(%"class.std::basic_ostream"* nonnull align 8 dereferenceable(8), i32) local_unnamed_addr #0

; Function Attrs: sspstrong uwtable
define internal void @_GLOBAL__sub_I_1099.cpp() #6 section ".text.startup" {
  tail call void @_ZNSt8ios_base4InitC1Ev(%"class.std::ios_base::Init"* nonnull align 1 dereferenceable(1) @_ZStL8__ioinit)
  %1 = tail call i32 @__cxa_atexit(void (i8*)* bitcast (void (%"class.std::ios_base::Init"*)* @_ZNSt8ios_base4InitD1Ev to void (i8*)*), i8* getelementptr inbounds (%"class.std::ios_base::Init", %"class.std::ios_base::Init"* @_ZStL8__ioinit, i64 0, i32 0), i8* nonnull @__dso_handle) #7
  ret void
}


!llvm.module.flags = !{!0, !1, !2, !3}
!llvm.ident = !{!4}

!0 = !{i32 1, !"wchar_size", i32 4}
!1 = !{i32 7, !"PIC Level", i32 2}
!2 = !{i32 7, !"PIE Level", i32 2}
!3 = !{i32 7, !"uwtable", i32 1}
!4 = !{!"clang version 13.0.0"}
!5 = !{!6, !6, i64 0}
!6 = !{!"int", !7, i64 0}
!7 = !{!"omnipotent char", !8, i64 0}
!8 = !{!"Simple C++ TBAA"}
!9 = distinct !{!9, !10}
!10 = !{!"llvm.loop.mustprogress"}
!11 = distinct !{!11, !10}
!12 = distinct !{!12, !10}
